target datalayout = "e-m:e-p270:32:32-p271:32:32-p272:64:64-i64:64-i128:128-f80:128-n8:16:32:64-S128"
target triple = "x86_64-pc-linux-gnu"

%"class.llvm::LazyBranchProbabilityInfoPass" = type { %"class.llvm::FunctionPass.base", %"class.std::unique_ptr" }
%"class.llvm::FunctionPass.base" = type { %"class.llvm::Pass.base" }
%"class.llvm::Pass.base" = type <{ ptr, ptr, ptr, i32 }>
%"class.std::unique_ptr" = type { %"struct.std::__uniq_ptr_data" }
%"struct.std::__uniq_ptr_data" = type { %"class.std::__uniq_ptr_impl" }
%"class.std::__uniq_ptr_impl" = type { %"class.std::tuple" }
%"class.std::tuple" = type { %"struct.std::_Tuple_impl" }
%"struct.std::_Tuple_impl" = type { %"struct.std::_Head_base.6" }
%"struct.std::_Head_base.6" = type { ptr }
%"class.llvm::LazyBranchProbabilityInfoPass::LazyBranchProbabilityInfo" = type { %"class.llvm::BranchProbabilityInfo", i8, ptr, ptr, ptr }
%"class.llvm::BranchProbabilityInfo" = type { %"class.llvm::DenseSet", %"class.llvm::DenseMap.10", ptr, ptr, %"class.std::unique_ptr.13", %"class.llvm::SmallDenseMap", %"class.llvm::SmallDenseMap.22" }
%"class.llvm::DenseSet" = type { %"class.llvm::detail::DenseSetImpl" }
%"class.llvm::detail::DenseSetImpl" = type { %"class.llvm::DenseMap.7" }
%"class.llvm::DenseMap.7" = type <{ ptr, i32, i32, i32, [4 x i8] }>
%"class.llvm::DenseMap.10" = type <{ ptr, i32, i32, i32, [4 x i8] }>
%"class.std::unique_ptr.13" = type { %"struct.std::__uniq_ptr_data.14" }
%"struct.std::__uniq_ptr_data.14" = type { %"class.std::__uniq_ptr_impl.15" }
%"class.std::__uniq_ptr_impl.15" = type { %"class.std::tuple.16" }
%"class.std::tuple.16" = type { %"struct.std::_Tuple_impl.17" }
%"struct.std::_Tuple_impl.17" = type { %"struct.std::_Head_base.20" }
%"struct.std::_Head_base.20" = type { ptr }
%"class.llvm::SmallDenseMap" = type { i32, i32, %"struct.llvm::AlignedCharArrayUnion" }
%"struct.llvm::AlignedCharArrayUnion" = type { [64 x i8] }
%"class.llvm::SmallDenseMap.22" = type { i32, i32, %"struct.llvm::AlignedCharArrayUnion.24" }
%"struct.llvm::AlignedCharArrayUnion.24" = type { [96 x i8] }

; Function Attrs: mustprogress nounwind uwtable
define linkonce_odr hidden noundef nonnull align 8 dereferenceable(8) ptr @_ZNSt10_Head_baseILm0EPN4llvm29LazyBranchProbabilityInfoPass25LazyBranchProbabilityInfoELb0EE7_M_headERKS4_(ptr noundef nonnull align 8 dereferenceable(8) %0) #0 comdat align 2 {
  %2 = alloca ptr, align 8
  store ptr %0, ptr %2, align 8
  %3 = load ptr, ptr %2, align 8
  %4 = getelementptr inbounds nuw %"struct.std::_Head_base.6", ptr %3, i32 0, i32 0
  ret ptr %4
}

; Function Attrs: mustprogress nounwind uwtable
define linkonce_odr hidden noundef nonnull align 8 dereferenceable(8) ptr @_ZNSt11_Tuple_implILm0EJPN4llvm29LazyBranchProbabilityInfoPass25LazyBranchProbabilityInfoESt14default_deleteIS2_EEE7_M_headERKS6_(ptr noundef nonnull align 8 dereferenceable(8) %0) #0 comdat align 2 {
  %2 = alloca ptr, align 8
  store ptr %0, ptr %2, align 8
  %3 = load ptr, ptr %2, align 8
  %4 = call noundef nonnull align 8 dereferenceable(8) ptr @_ZNSt10_Head_baseILm0EPN4llvm29LazyBranchProbabilityInfoPass25LazyBranchProbabilityInfoELb0EE7_M_headERKS4_(ptr noundef nonnull align 8 dereferenceable(8) %3) #9
  ret ptr %4
}

; Function Attrs: mustprogress nounwind uwtable
define linkonce_odr noundef nonnull align 8 dereferenceable(8) ptr @_ZSt12__get_helperILm0EPN4llvm29LazyBranchProbabilityInfoPass25LazyBranchProbabilityInfoEJSt14default_deleteIS2_EEERKT0_RKSt11_Tuple_implIXT_EJS6_DpT1_EE(ptr noundef nonnull align 8 dereferenceable(8) %0) #0 comdat {
  %2 = alloca ptr, align 8
  store ptr %0, ptr %2, align 8
  %3 = load ptr, ptr %2, align 8
  %4 = call noundef nonnull align 8 dereferenceable(8) ptr @_ZNSt11_Tuple_implILm0EJPN4llvm29LazyBranchProbabilityInfoPass25LazyBranchProbabilityInfoESt14default_deleteIS2_EEE7_M_headERKS6_(ptr noundef nonnull align 8 dereferenceable(8) %3) #9
  ret ptr %4
}

; Function Attrs: mustprogress nounwind uwtable
define linkonce_odr noundef nonnull align 8 dereferenceable(8) ptr @_ZSt3getILm0EJPN4llvm29LazyBranchProbabilityInfoPass25LazyBranchProbabilityInfoESt14default_deleteIS2_EEERKNSt13tuple_elementIXT_ESt5tupleIJDpT0_EEE4typeERKSA_(ptr noundef nonnull align 8 dereferenceable(8) %0) #0 comdat {
  %2 = alloca ptr, align 8
  store ptr %0, ptr %2, align 8
  %3 = load ptr, ptr %2, align 8
  %4 = call noundef nonnull align 8 dereferenceable(8) ptr @_ZSt12__get_helperILm0EPN4llvm29LazyBranchProbabilityInfoPass25LazyBranchProbabilityInfoEJSt14default_deleteIS2_EEERKT0_RKSt11_Tuple_implIXT_EJS6_DpT1_EE(ptr noundef nonnull align 8 dereferenceable(8) %3) #9
  ret ptr %4
}

; Function Attrs: mustprogress nounwind uwtable
define linkonce_odr hidden noundef ptr @_ZNKSt15__uniq_ptr_implIN4llvm29LazyBranchProbabilityInfoPass25LazyBranchProbabilityInfoESt14default_deleteIS2_EE6_M_ptrEv(ptr noundef nonnull align 8 dereferenceable(8) %0) #0 comdat align 2 {
  %2 = alloca ptr, align 8
  store ptr %0, ptr %2, align 8
  %3 = load ptr, ptr %2, align 8
  %4 = getelementptr inbounds nuw %"class.std::__uniq_ptr_impl", ptr %3, i32 0, i32 0
  %5 = call noundef nonnull align 8 dereferenceable(8) ptr @_ZSt3getILm0EJPN4llvm29LazyBranchProbabilityInfoPass25LazyBranchProbabilityInfoESt14default_deleteIS2_EEERKNSt13tuple_elementIXT_ESt5tupleIJDpT0_EEE4typeERKSA_(ptr noundef nonnull align 8 dereferenceable(8) %4) #9
  %6 = load ptr, ptr %5, align 8
  ret ptr %6
}

; Function Attrs: mustprogress nounwind uwtable
define linkonce_odr hidden noundef ptr @_ZNKSt10unique_ptrIN4llvm29LazyBranchProbabilityInfoPass25LazyBranchProbabilityInfoESt14default_deleteIS2_EE3getEv(ptr noundef nonnull align 8 dereferenceable(8) %0) #0 comdat align 2 {
  %2 = alloca ptr, align 8
  store ptr %0, ptr %2, align 8
  %3 = load ptr, ptr %2, align 8
  %4 = getelementptr inbounds nuw %"class.std::unique_ptr", ptr %3, i32 0, i32 0
  %5 = call noundef ptr @_ZNKSt15__uniq_ptr_implIN4llvm29LazyBranchProbabilityInfoPass25LazyBranchProbabilityInfoESt14default_deleteIS2_EE6_M_ptrEv(ptr noundef nonnull align 8 dereferenceable(8) %4) #9
  ret ptr %5
}

; Function Attrs: mustprogress nounwind uwtable
define linkonce_odr hidden noundef nonnull align 8 dereferenceable(248) ptr @_ZN4llvm29LazyBranchProbabilityInfoPass25LazyBranchProbabilityInfo13getCalculatedEv(ptr noundef nonnull align 8 dereferenceable(280) %0) #0 comdat align 2 {
  %2 = alloca ptr, align 8
  store ptr %0, ptr %2, align 8
  %3 = load ptr, ptr %2, align 8
  %4 = getelementptr inbounds nuw %"class.llvm::LazyBranchProbabilityInfoPass::LazyBranchProbabilityInfo", ptr %3, i32 0, i32 1
  %5 = load i8, ptr %4, align 8
  %6 = trunc i8 %5 to i1
  br i1 %6, label %16, label %7

7:                                                ; preds = %1
  %8 = getelementptr inbounds nuw %"class.llvm::LazyBranchProbabilityInfoPass::LazyBranchProbabilityInfo", ptr %3, i32 0, i32 0
  %9 = getelementptr inbounds nuw %"class.llvm::LazyBranchProbabilityInfoPass::LazyBranchProbabilityInfo", ptr %3, i32 0, i32 2
  %10 = load ptr, ptr %9, align 8
  %11 = getelementptr inbounds nuw %"class.llvm::LazyBranchProbabilityInfoPass::LazyBranchProbabilityInfo", ptr %3, i32 0, i32 3
  %12 = load ptr, ptr %11, align 8
  %13 = getelementptr inbounds nuw %"class.llvm::LazyBranchProbabilityInfoPass::LazyBranchProbabilityInfo", ptr %3, i32 0, i32 4
  %14 = load ptr, ptr %13, align 8
  call void @_ZN4llvm21BranchProbabilityInfo9calculateERKNS_8FunctionERKNS_8LoopInfoEPKNS_17TargetLibraryInfoEPNS_13DominatorTreeEPNS_17PostDominatorTreeE(ptr noundef nonnull align 8 dereferenceable(248) %8, ptr noundef nonnull align 8 dereferenceable(136) %10, ptr noundef nonnull align 8 dereferenceable(144) %12, ptr noundef %14, ptr noundef null, ptr noundef null)
  %15 = getelementptr inbounds nuw %"class.llvm::LazyBranchProbabilityInfoPass::LazyBranchProbabilityInfo", ptr %3, i32 0, i32 1
  store i8 1, ptr %15, align 8
  br label %16

16:                                               ; preds = %7, %1
  %17 = getelementptr inbounds nuw %"class.llvm::LazyBranchProbabilityInfoPass::LazyBranchProbabilityInfo", ptr %3, i32 0, i32 0
  ret ptr %17
}

; Function Attrs: mustprogress nounwind uwtable
define linkonce_odr hidden noundef ptr @_ZNKSt10unique_ptrIN4llvm29LazyBranchProbabilityInfoPass25LazyBranchProbabilityInfoESt14default_deleteIS2_EEptEv(ptr noundef nonnull align 8 dereferenceable(8) %0) #0 comdat align 2 {
  %2 = alloca ptr, align 8
  store ptr %0, ptr %2, align 8
  %3 = load ptr, ptr %2, align 8
  %4 = call noundef ptr @_ZNKSt10unique_ptrIN4llvm29LazyBranchProbabilityInfoPass25LazyBranchProbabilityInfoESt14default_deleteIS2_EE3getEv(ptr noundef nonnull align 8 dereferenceable(8) %3) #9
  ret ptr %4
}

; Function Attrs: mustprogress nounwind uwtable
define dso_local void @_ZNK4llvm29LazyBranchProbabilityInfoPass5printERNS_11raw_ostreamEPKNS_6ModuleE(ptr noundef nonnull align 8 dereferenceable(40) %0, ptr noundef nonnull align 8 dereferenceable(48) %1, ptr noundef %2) unnamed_addr #0 align 2 {
  %4 = alloca ptr, align 8
  %5 = alloca ptr, align 8
  %6 = alloca ptr, align 8
  store ptr %0, ptr %4, align 8
  store ptr %1, ptr %5, align 8
  store ptr %2, ptr %6, align 8
  %7 = load ptr, ptr %4, align 8
  %8 = getelementptr inbounds nuw %"class.llvm::LazyBranchProbabilityInfoPass", ptr %7, i32 0, i32 1
  %9 = call noundef ptr @_ZNKSt10unique_ptrIN4llvm29LazyBranchProbabilityInfoPass25LazyBranchProbabilityInfoESt14default_deleteIS2_EEptEv(ptr noundef nonnull align 8 dereferenceable(8) %8) #9
  %10 = call noundef nonnull align 8 dereferenceable(248) ptr @_ZN4llvm29LazyBranchProbabilityInfoPass25LazyBranchProbabilityInfo13getCalculatedEv(ptr noundef nonnull align 8 dereferenceable(280) %9)
  %11 = load ptr, ptr %5, align 8
  call void @_ZNK4llvm21BranchProbabilityInfo5printERNS_11raw_ostreamE(ptr noundef nonnull align 8 dereferenceable(248) %10, ptr noundef nonnull align 8 dereferenceable(48) %11)
  ret void
}