; Function Attrs: mustprogress nounwind uwtable
define dso_local void @_ZNK4llvm29LazyBranchProbabilityInfoPass5printERNS_11raw_ostreamEPKNS_6ModuleE(ptr noundef nonnull readonly align 8 captures(none) dereferenceable(40) %0, ptr noundef nonnull align 8 dereferenceable(48) %1, ptr readnone captures(none) %2) unnamed_addr #0 align 2 {
  %4 = getelementptr inbounds nuw i8, ptr %0, i64 32
  %5 = load ptr, ptr %4, align 8
  %6 = getelementptr inbounds nuw i8, ptr %5, i64 248
  %7 = load i8, ptr %6, align 8
  %8 = trunc i8 %7 to i1
  br i1 %8, label %_ZN4llvm29LazyBranchProbabilityInfoPass25LazyBranchProbabilityInfo13getCalculatedEv.exit, label %9

9:                                                ; preds = %3
  %10 = getelementptr inbounds nuw i8, ptr %5, i64 256
  %11 = load ptr, ptr %10, align 8
  %12 = getelementptr inbounds nuw i8, ptr %5, i64 264
  %13 = load ptr, ptr %12, align 8
  %14 = getelementptr inbounds nuw i8, ptr %5, i64 272
  %15 = load ptr, ptr %14, align 8
  tail call void @_ZN4llvm21BranchProbabilityInfo9calculateERKNS_8FunctionERKNS_8LoopInfoEPKNS_17TargetLibraryInfoEPNS_13DominatorTreeEPNS_17PostDominatorTreeE(ptr noundef nonnull align 8 dereferenceable(280) %5, ptr noundef nonnull align 8 dereferenceable(136) %11, ptr noundef nonnull align 8 dereferenceable(144) %13, ptr noundef %15, ptr noundef null, ptr noundef null) #11
  store i8 1, ptr %6, align 8
  br label %_ZN4llvm29LazyBranchProbabilityInfoPass25LazyBranchProbabilityInfo13getCalculatedEv.exit

_ZN4llvm29LazyBranchProbabilityInfoPass25LazyBranchProbabilityInfo13getCalculatedEv.exit: ; preds = %3, %9
  tail call void @_ZNK4llvm21BranchProbabilityInfo5printERNS_11raw_ostreamE(ptr noundef nonnull align 8 dereferenceable(248) %5, ptr noundef nonnull align 8 dereferenceable(48) %1) #11
  ret void
}